target datalayout = "e-m:e-p270:32:32-p271:32:32-p272:64:64-i64:64-i128:128-f80:128-n8:16:32:64-S128"
target triple = "x86_64-pc-linux-gnu"

%struct.curltime = type { i64, i32 }
%struct.Curl_tree = type { ptr, ptr, ptr, ptr, %struct.curltime, ptr }

@Curl_splaygetbest.tv_zero = internal constant { i64, i32, [4 x i8] } zeroinitializer, align 8

; Function Attrs: nounwind uwtable
define hidden ptr @Curl_splaygetbest(i64 %0, i32 %1, ptr noundef %2, ptr noundef %3) #0 {
  %5 = alloca ptr, align 8
  %6 = alloca %struct.curltime, align 8
  %7 = alloca ptr, align 8
  %8 = alloca ptr, align 8
  %9 = alloca ptr, align 8
  %10 = alloca i32, align 4
  %11 = getelementptr inbounds nuw { i64, i32 }, ptr %6, i32 0, i32 0
  store i64 %0, ptr %11, align 8
  %12 = getelementptr inbounds nuw { i64, i32 }, ptr %6, i32 0, i32 1
  store i32 %1, ptr %12, align 8
  store ptr %2, ptr %7, align 8, !tbaa !3
  store ptr %3, ptr %8, align 8, !tbaa !19
  call void @llvm.lifetime.start.p0(i64 8, ptr %9) #4
  %13 = load ptr, ptr %7, align 8, !tbaa !3
  %14 = icmp ne ptr %13, null
  br i1 %14, label %17, label %15

15:                                               ; preds = %4
  %16 = load ptr, ptr %8, align 8, !tbaa !19
  store ptr null, ptr %16, align 8, !tbaa !3
  store ptr null, ptr %5, align 8
  store i32 1, ptr %10, align 4
  br label %82

17:                                               ; preds = %4
  %18 = load ptr, ptr %7, align 8, !tbaa !3
  %19 = load i64, ptr @Curl_splaygetbest.tv_zero, align 8
  %20 = load i32, ptr getelementptr inbounds nuw ({ i64, i32 }, ptr @Curl_splaygetbest.tv_zero, i32 0, i32 1), align 8
  %21 = call ptr @Curl_splay(i64 %19, i32 %20, ptr noundef %18)
  store ptr %21, ptr %7, align 8, !tbaa !3
  br label %22

22:                                               ; preds = %17
  br label %23

23:                                               ; preds = %22
  br label %24

24:                                               ; preds = %23
  %25 = load ptr, ptr %7, align 8, !tbaa !3
  %26 = getelementptr inbounds nuw %struct.Curl_tree, ptr %25, i32 0, i32 4
  %27 = getelementptr inbounds nuw { i64, i32 }, ptr %6, i32 0, i32 0
  %28 = load i64, ptr %27, align 8
  %29 = getelementptr inbounds nuw { i64, i32 }, ptr %6, i32 0, i32 1
  %30 = load i32, ptr %29, align 8
  %31 = getelementptr inbounds nuw { i64, i32 }, ptr %26, i32 0, i32 0
  %32 = load i64, ptr %31, align 8
  %33 = getelementptr inbounds nuw { i64, i32 }, ptr %26, i32 0, i32 1
  %34 = load i32, ptr %33, align 8
  %35 = call i64 @Curl_timediff_us(i64 %28, i32 %30, i64 %32, i32 %34)
  %36 = icmp slt i64 %35, 0
  br i1 %36, label %37, label %40

37:                                               ; preds = %24
  %38 = load ptr, ptr %8, align 8, !tbaa !19
  store ptr null, ptr %38, align 8, !tbaa !3
  %39 = load ptr, ptr %7, align 8, !tbaa !3
  store ptr %39, ptr %5, align 8
  store i32 1, ptr %10, align 4
  br label %82

40:                                               ; preds = %24
  %41 = load ptr, ptr %7, align 8, !tbaa !3
  %42 = getelementptr inbounds nuw %struct.Curl_tree, ptr %41, i32 0, i32 2
  %43 = load ptr, ptr %42, align 8, !tbaa !17
  store ptr %43, ptr %9, align 8, !tbaa !3
  %44 = load ptr, ptr %9, align 8, !tbaa !3
  %45 = load ptr, ptr %7, align 8, !tbaa !3
  %46 = icmp ne ptr %44, %45
  br i1 %46, label %47, label %75

47:                                               ; preds = %40
  %48 = load ptr, ptr %9, align 8, !tbaa !3
  %49 = getelementptr inbounds nuw %struct.Curl_tree, ptr %48, i32 0, i32 4
  %50 = load ptr, ptr %7, align 8, !tbaa !3
  %51 = getelementptr inbounds nuw %struct.Curl_tree, ptr %50, i32 0, i32 4
  call void @llvm.memcpy.p0.p0.i64(ptr align 8 %49, ptr align 8 %51, i64 16, i1 false), !tbaa.struct !15
  %52 = load ptr, ptr %7, align 8, !tbaa !3
  %53 = getelementptr inbounds nuw %struct.Curl_tree, ptr %52, i32 0, i32 1
  %54 = load ptr, ptr %53, align 8, !tbaa !8
  %55 = load ptr, ptr %9, align 8, !tbaa !3
  %56 = getelementptr inbounds nuw %struct.Curl_tree, ptr %55, i32 0, i32 1
  store ptr %54, ptr %56, align 8, !tbaa !8
  %57 = load ptr, ptr %7, align 8, !tbaa !3
  %58 = getelementptr inbounds nuw %struct.Curl_tree, ptr %57, i32 0, i32 0
  %59 = load ptr, ptr %58, align 8, !tbaa !13
  %60 = load ptr, ptr %9, align 8, !tbaa !3
  %61 = getelementptr inbounds nuw %struct.Curl_tree, ptr %60, i32 0, i32 0
  store ptr %59, ptr %61, align 8, !tbaa !13
  %62 = load ptr, ptr %7, align 8, !tbaa !3
  %63 = getelementptr inbounds nuw %struct.Curl_tree, ptr %62, i32 0, i32 3
  %64 = load ptr, ptr %63, align 8, !tbaa !18
  %65 = load ptr, ptr %9, align 8, !tbaa !3
  %66 = getelementptr inbounds nuw %struct.Curl_tree, ptr %65, i32 0, i32 3
  store ptr %64, ptr %66, align 8, !tbaa !18
  %67 = load ptr, ptr %9, align 8, !tbaa !3
  %68 = load ptr, ptr %7, align 8, !tbaa !3
  %69 = getelementptr inbounds nuw %struct.Curl_tree, ptr %68, i32 0, i32 3
  %70 = load ptr, ptr %69, align 8, !tbaa !18
  %71 = getelementptr inbounds nuw %struct.Curl_tree, ptr %70, i32 0, i32 2
  store ptr %67, ptr %71, align 8, !tbaa !17
  %72 = load ptr, ptr %7, align 8, !tbaa !3
  %73 = load ptr, ptr %8, align 8, !tbaa !19
  store ptr %72, ptr %73, align 8, !tbaa !3
  %74 = load ptr, ptr %9, align 8, !tbaa !3
  store ptr %74, ptr %5, align 8
  store i32 1, ptr %10, align 4
  br label %82

75:                                               ; preds = %40
  %76 = load ptr, ptr %7, align 8, !tbaa !3
  %77 = getelementptr inbounds nuw %struct.Curl_tree, ptr %76, i32 0, i32 1
  %78 = load ptr, ptr %77, align 8, !tbaa !8
  store ptr %78, ptr %9, align 8, !tbaa !3
  %79 = load ptr, ptr %7, align 8, !tbaa !3
  %80 = load ptr, ptr %8, align 8, !tbaa !19
  store ptr %79, ptr %80, align 8, !tbaa !3
  %81 = load ptr, ptr %9, align 8, !tbaa !3
  store ptr %81, ptr %5, align 8
  store i32 1, ptr %10, align 4
  br label %82

82:                                               ; preds = %75, %47, %37, %15
  call void @llvm.lifetime.end.p0(i64 8, ptr %9) #4
  %83 = load ptr, ptr %5, align 8
  ret ptr %83
}