; Function Attrs: nounwind uwtable
define hidden ptr @Curl_splaygetbest(i64 %0, i32 %1, ptr noundef %2, ptr noundef writeonly captures(none) initializes((0, 8)) %3) local_unnamed_addr #0 {
  %.not = icmp eq ptr %2, null
  br i1 %.not, label %29, label %5

5:                                                ; preds = %4
  %6 = tail call ptr @Curl_splay(i64 0, i32 0, ptr noundef nonnull %2)
  %7 = getelementptr inbounds nuw i8, ptr %6, i64 32
  %8 = load i64, ptr %7, align 8
  %9 = getelementptr inbounds nuw i8, ptr %6, i64 40
  %10 = load i32, ptr %9, align 8
  %11 = tail call i64 @Curl_timediff_us(i64 %0, i32 %1, i64 %8, i32 %10) #7
  %12 = icmp slt i64 %11, 0
  br i1 %12, label %29, label %13

13:                                               ; preds = %5
  %14 = getelementptr inbounds nuw i8, ptr %6, i64 16
  %15 = load ptr, ptr %14, align 8, !tbaa !17
  %.not30 = icmp eq ptr %15, %6
  br i1 %.not30, label %26, label %16

16:                                               ; preds = %13
  %17 = getelementptr inbounds nuw i8, ptr %15, i64 32
  tail call void @llvm.memcpy.p0.p0.i64(ptr noundef nonnull align 8 dereferenceable(16) %17, ptr noundef nonnull align 8 dereferenceable(16) %7, i64 16, i1 false), !tbaa.struct !14
  %18 = getelementptr inbounds nuw i8, ptr %6, i64 8
  %19 = load ptr, ptr %18, align 8, !tbaa !12
  %20 = getelementptr inbounds nuw i8, ptr %15, i64 8
  store ptr %19, ptr %20, align 8, !tbaa !12
  %21 = load ptr, ptr %6, align 8, !tbaa !3
  store ptr %21, ptr %15, align 8, !tbaa !3
  %22 = getelementptr inbounds nuw i8, ptr %6, i64 24
  %23 = load ptr, ptr %22, align 8, !tbaa !18
  %24 = getelementptr inbounds nuw i8, ptr %15, i64 24
  store ptr %23, ptr %24, align 8, !tbaa !18
  %25 = getelementptr inbounds nuw i8, ptr %23, i64 16
  store ptr %15, ptr %25, align 8, !tbaa !17
  br label %29

26:                                               ; preds = %13
  %27 = getelementptr inbounds nuw i8, ptr %6, i64 8
  %28 = load ptr, ptr %27, align 8, !tbaa !12
  br label %29

29:                                               ; preds = %5, %4, %26, %16
  %.sink = phi ptr [ %6, %26 ], [ %6, %16 ], [ null, %4 ], [ null, %5 ]
  %.0 = phi ptr [ %28, %26 ], [ %15, %16 ], [ null, %4 ], [ %6, %5 ]
  store ptr %.sink, ptr %3, align 8, !tbaa !13
  ret ptr %.0
}